; Function Attrs: mustprogress norecurse uwtable
define internal fastcc void @_ZL27_GetAndVerifyAttributeValueIdEvRKN32pxrInternal_v0_24__pxrReserved__12UsdAttributeERKNS0_11UsdTimeCodeERKT_(ptr noundef nonnull align 8 dereferenceable(32) %0, ptr nocapture noundef nonnull readonly align 8 dereferenceable(8) %1, ptr nocapture noundef nonnull readonly align 8 dereferenceable(8) %2) unnamed_addr #0 personality ptr @__gxx_personality_v0 {
  %4 = alloca %"struct.pxrInternal_v0_24__pxrReserved__::Tf_DiagnosticLiteHelper", align 8
  %5 = alloca %"struct.pxrInternal_v0_24__pxrReserved__::Tf_DiagnosticLiteHelper", align 8
  %6 = alloca %"struct.pxrInternal_v0_24__pxrReserved__::Tf_DiagnosticLiteHelper", align 8
  %7 = alloca %"struct.pxrInternal_v0_24__pxrReserved__::Tf_DiagnosticLiteHelper", align 8
  %8 = alloca double, align 8
  %9 = alloca double, align 8
  %10 = alloca %"class.pxrInternal_v0_24__pxrReserved__::UsdAttributeQuery", align 8
  %.sroa.01.0.copyload = load double, ptr %1, align 8
  %11 = call noundef zeroext i1 @_ZNK32pxrInternal_v0_24__pxrReserved__12UsdAttribute4_GetIdEEbPT_NS_11UsdTimeCodeE(ptr noundef nonnull align 8 dereferenceable(32) %0, ptr noundef nonnull %8, double %.sroa.01.0.copyload)
  call void @llvm.lifetime.start.p0(i64 48, ptr nonnull %7)
  %.sink36.sroa.gep = getelementptr inbounds i8, ptr %5, i64 8
  %.sink36.sroa.gep37 = getelementptr inbounds i8, ptr %4, i64 8
  %.sink36.sroa.gep39 = getelementptr inbounds i8, ptr %5, i64 16
  %.sink36.sroa.gep40 = getelementptr inbounds i8, ptr %4, i64 16
  %.sink36.sroa.gep42 = getelementptr inbounds i8, ptr %5, i64 24
  %.sink36.sroa.gep43 = getelementptr inbounds i8, ptr %4, i64 24
  %.sink36.sroa.gep45 = getelementptr inbounds i8, ptr %5, i64 32
  %.sink36.sroa.gep46 = getelementptr inbounds i8, ptr %4, i64 32
  %.sink36.sroa.gep48 = getelementptr inbounds nuw i8, ptr %5, i64 40
  %.sink36.sroa.gep49 = getelementptr inbounds nuw i8, ptr %4, i64 40
  br i1 %11, label %_ZN32pxrInternal_v0_24__pxrReserved__14Tf_AxiomHelperEbRKNS_13TfCallContextEPKc.exit, label %12

12:                                               ; preds = %3
  store ptr @.str, ptr %7, align 8
  %.sroa.226.0..sroa_idx = getelementptr inbounds i8, ptr %7, i64 8
  store ptr @__func__._ZL27_GetAndVerifyAttributeValueIN32pxrInternal_v0_24__pxrReserved__11SdfTimeCodeEEvRKNS0_12UsdAttributeERKNS0_11UsdTimeCodeERKT_, ptr %.sroa.226.0..sroa_idx, align 8
  %.sroa.327.0..sroa_idx = getelementptr inbounds i8, ptr %7, i64 16
  store i64 181, ptr %.sroa.327.0..sroa_idx, align 8
  %.sroa.428.0..sroa_idx = getelementptr inbounds i8, ptr %7, i64 24
  store ptr @__PRETTY_FUNCTION__._ZL27_GetAndVerifyAttributeValueIdEvRKN32pxrInternal_v0_24__pxrReserved__12UsdAttributeERKNS0_11UsdTimeCodeERKT_, ptr %.sroa.428.0..sroa_idx, align 8
  %.sroa.529.0..sroa_idx = getelementptr inbounds i8, ptr %7, i64 32
  store i8 0, ptr %.sroa.529.0..sroa_idx, align 8
  %13 = getelementptr inbounds nuw i8, ptr %7, i64 40
  store i32 4, ptr %13, align 8
  call void (ptr, ptr, ...) @_ZNK32pxrInternal_v0_24__pxrReserved__23Tf_DiagnosticLiteHelper15IssueFatalErrorEPKcz(ptr noundef nonnull align 8 dereferenceable(44) %7, ptr noundef nonnull @.str.3, ptr noundef nonnull @.str.60) #19
  unreachable

_ZN32pxrInternal_v0_24__pxrReserved__14Tf_AxiomHelperEbRKNS_13TfCallContextEPKc.exit: ; preds = %3
  call void @llvm.lifetime.end.p0(i64 48, ptr nonnull %7)
  %14 = load double, ptr %8, align 8
  %15 = load double, ptr %2, align 8
  %16 = fcmp oeq double %14, %15
  call void @llvm.lifetime.start.p0(i64 48, ptr nonnull %6)
  br i1 %16, label %_ZN32pxrInternal_v0_24__pxrReserved__14Tf_AxiomHelperEbRKNS_13TfCallContextEPKc.exit8, label %17

17:                                               ; preds = %_ZN32pxrInternal_v0_24__pxrReserved__14Tf_AxiomHelperEbRKNS_13TfCallContextEPKc.exit
  store ptr @.str, ptr %6, align 8
  %.sroa.220.0..sroa_idx = getelementptr inbounds i8, ptr %6, i64 8
  store ptr @__func__._ZL27_GetAndVerifyAttributeValueIN32pxrInternal_v0_24__pxrReserved__11SdfTimeCodeEEvRKNS0_12UsdAttributeERKNS0_11UsdTimeCodeERKT_, ptr %.sroa.220.0..sroa_idx, align 8
  %.sroa.321.0..sroa_idx = getelementptr inbounds i8, ptr %6, i64 16
  store i64 182, ptr %.sroa.321.0..sroa_idx, align 8
  %.sroa.422.0..sroa_idx = getelementptr inbounds i8, ptr %6, i64 24
  store ptr @__PRETTY_FUNCTION__._ZL27_GetAndVerifyAttributeValueIdEvRKN32pxrInternal_v0_24__pxrReserved__12UsdAttributeERKNS0_11UsdTimeCodeERKT_, ptr %.sroa.422.0..sroa_idx, align 8
  %.sroa.523.0..sroa_idx = getelementptr inbounds i8, ptr %6, i64 32
  store i8 0, ptr %.sroa.523.0..sroa_idx, align 8
  %18 = getelementptr inbounds nuw i8, ptr %6, i64 40
  store i32 4, ptr %18, align 8
  call void (ptr, ptr, ...) @_ZNK32pxrInternal_v0_24__pxrReserved__23Tf_DiagnosticLiteHelper15IssueFatalErrorEPKcz(ptr noundef nonnull align 8 dereferenceable(44) %6, ptr noundef nonnull @.str.3, ptr noundef nonnull @.str.23) #19
  unreachable

_ZN32pxrInternal_v0_24__pxrReserved__14Tf_AxiomHelperEbRKNS_13TfCallContextEPKc.exit8: ; preds = %_ZN32pxrInternal_v0_24__pxrReserved__14Tf_AxiomHelperEbRKNS_13TfCallContextEPKc.exit
  call void @llvm.lifetime.end.p0(i64 48, ptr nonnull %6)
  call void @_ZN32pxrInternal_v0_24__pxrReserved__17UsdAttributeQueryC1ERKNS_12UsdAttributeE(ptr noundef nonnull align 8 dereferenceable(120) %10, ptr noundef nonnull align 8 dereferenceable(32) %0)
  %.sroa.0.0.copyload = load double, ptr %1, align 8
  %19 = invoke noundef zeroext i1 @_ZNK32pxrInternal_v0_24__pxrReserved__17UsdAttributeQuery4_GetIdEEbPT_NS_11UsdTimeCodeE(ptr noundef nonnull align 8 dereferenceable(120) %10, ptr noundef nonnull %9, double %.sroa.0.0.copyload)
          to label %_ZNK32pxrInternal_v0_24__pxrReserved__17UsdAttributeQuery3GetIdEEbPT_NS_11UsdTimeCodeE.exit unwind label %26

_ZNK32pxrInternal_v0_24__pxrReserved__17UsdAttributeQuery3GetIdEEbPT_NS_11UsdTimeCodeE.exit: ; preds = %_ZN32pxrInternal_v0_24__pxrReserved__14Tf_AxiomHelperEbRKNS_13TfCallContextEPKc.exit8
  call void @llvm.lifetime.start.p0(i64 48, ptr nonnull %5)
  br i1 %19, label %20, label %.invoke

20:                                               ; preds = %_ZNK32pxrInternal_v0_24__pxrReserved__17UsdAttributeQuery3GetIdEEbPT_NS_11UsdTimeCodeE.exit
  call void @llvm.lifetime.end.p0(i64 48, ptr nonnull %5)
  %21 = load double, ptr %9, align 8
  %22 = load double, ptr %2, align 8
  %23 = fcmp oeq double %21, %22
  call void @llvm.lifetime.start.p0(i64 48, ptr nonnull %4)
  br i1 %23, label %25, label %.invoke

.invoke:                                          ; preds = %20, %_ZNK32pxrInternal_v0_24__pxrReserved__17UsdAttributeQuery3GetIdEEbPT_NS_11UsdTimeCodeE.exit
  %.sink36.sroa.phi = phi ptr [ %.sink36.sroa.gep, %_ZNK32pxrInternal_v0_24__pxrReserved__17UsdAttributeQuery3GetIdEEbPT_NS_11UsdTimeCodeE.exit ], [ %.sink36.sroa.gep37, %20 ]
  %.sink36.sroa.phi38 = phi ptr [ %.sink36.sroa.gep39, %_ZNK32pxrInternal_v0_24__pxrReserved__17UsdAttributeQuery3GetIdEEbPT_NS_11UsdTimeCodeE.exit ], [ %.sink36.sroa.gep40, %20 ]
  %.sink36.sroa.phi41 = phi ptr [ %.sink36.sroa.gep42, %_ZNK32pxrInternal_v0_24__pxrReserved__17UsdAttributeQuery3GetIdEEbPT_NS_11UsdTimeCodeE.exit ], [ %.sink36.sroa.gep43, %20 ]
  %.sink36.sroa.phi44 = phi ptr [ %.sink36.sroa.gep45, %_ZNK32pxrInternal_v0_24__pxrReserved__17UsdAttributeQuery3GetIdEEbPT_NS_11UsdTimeCodeE.exit ], [ %.sink36.sroa.gep46, %20 ]
  %.sink36.sroa.phi47 = phi ptr [ %.sink36.sroa.gep48, %_ZNK32pxrInternal_v0_24__pxrReserved__17UsdAttributeQuery3GetIdEEbPT_NS_11UsdTimeCodeE.exit ], [ %.sink36.sroa.gep49, %20 ]
  %.sink36 = phi ptr [ %5, %_ZNK32pxrInternal_v0_24__pxrReserved__17UsdAttributeQuery3GetIdEEbPT_NS_11UsdTimeCodeE.exit ], [ %4, %20 ]
  %.sink33 = phi i64 [ 188, %_ZNK32pxrInternal_v0_24__pxrReserved__17UsdAttributeQuery3GetIdEEbPT_NS_11UsdTimeCodeE.exit ], [ 189, %20 ]
  %24 = phi ptr [ @.str.61, %_ZNK32pxrInternal_v0_24__pxrReserved__17UsdAttributeQuery3GetIdEEbPT_NS_11UsdTimeCodeE.exit ], [ @.str.62, %20 ]
  store ptr @.str, ptr %.sink36, align 8
  store ptr @__func__._ZL27_GetAndVerifyAttributeValueIN32pxrInternal_v0_24__pxrReserved__11SdfTimeCodeEEvRKNS0_12UsdAttributeERKNS0_11UsdTimeCodeERKT_, ptr %.sink36.sroa.phi, align 8
  store i64 %.sink33, ptr %.sink36.sroa.phi38, align 8
  store ptr @__PRETTY_FUNCTION__._ZL27_GetAndVerifyAttributeValueIdEvRKN32pxrInternal_v0_24__pxrReserved__12UsdAttributeERKNS0_11UsdTimeCodeERKT_, ptr %.sink36.sroa.phi41, align 8
  store i8 0, ptr %.sink36.sroa.phi44, align 8
  store i32 4, ptr %.sink36.sroa.phi47, align 8
  invoke void (ptr, ptr, ...) @_ZNK32pxrInternal_v0_24__pxrReserved__23Tf_DiagnosticLiteHelper15IssueFatalErrorEPKcz(ptr noundef nonnull align 8 dereferenceable(44) %.sink36, ptr noundef nonnull @.str.3, ptr noundef nonnull %24) #19
          to label %.cont unwind label %26

.cont:                                            ; preds = %.invoke
  unreachable

25:                                               ; preds = %20
  call void @llvm.lifetime.end.p0(i64 48, ptr nonnull %4)
  call void @_ZN32pxrInternal_v0_24__pxrReserved__17UsdAttributeQueryD2Ev(ptr noundef nonnull align 8 dereferenceable(120) %10) #20
  ret void

26:                                               ; preds = %.invoke, %_ZN32pxrInternal_v0_24__pxrReserved__14Tf_AxiomHelperEbRKNS_13TfCallContextEPKc.exit8
  %27 = landingpad { ptr, i32 }
          cleanup
  call void @_ZN32pxrInternal_v0_24__pxrReserved__17UsdAttributeQueryD2Ev(ptr noundef nonnull align 8 dereferenceable(120) %10) #20
  resume { ptr, i32 } %27
}